                        .module hyt271.c
                        .area text(rom, con, rel)
 0000                   .dbfile ./hyt271.c
 0000                   .dbfile C:\Users\MATHIA~1\DOCUME~1\PSOCDE~1.2PR\WEATHE~1\WEATHE~1\hyt271.c
 0000                   .dbfunc e measuring _measuring fV
 0000           ;      capdata07 -> X+8
 0000           ;       tempdata -> X+6
 0000           ;     capdata813 -> X+4
 0000           ;        humdata -> X+2
 0000           ;              i -> X+0
 0000           ;       humidity -> X-7
 0000           ;    temperature -> X-5
 0000           _measuring::
 0000                   .dbline -1
 0000 10                push X
 0001 4F                mov X,SP
 0002 380A              add SP,10
 0004                   .dbline 10
 0004           ; 
 0004           ; 
 0004           ; 
 0004           ; #include <m8c.h>                      // part specific constants and macros
 0004           ; #include "PSoCAPI.h"                  // PSoC API definitions for all User Modules
 0004           ; 
 0004           ; #include <stdio.h>
 0004           ; #include <stdlib.h>
 0004           ; 
 0004           ;       void measuring (int*temperature, int*humidity) {
 0004                   .dbline 21
 0004           ;       
 0004           ;       
 0004           ;               //get temp and humidity here
 0004           ;               
 0004           ; 
 0004           ;               int capdata07, capdata813, tempdata, humdata;
 0004           ;               int i;
 0004           ;               
 0004           ;               //I2Cm_Start();                         //Initialize I2C
 0004           ;               //I2Cm_fSendStart( 0x28, 0);    //Send Measuring Request
 0004           ;               I2Cm_fSendStart( 0x28, 1);      //Send Data Fetch
 0004 10                push X
 0005 5701              mov X,1
 0007 5028              mov A,40
 0009 7C0000            xcall _I2Cm_fSendStart
 000C                   .dbline 23
 000C           ;               
 000C           ;               capdata813=I2Cm_bRead (I2Cm_ACKslave);
 000C 5001              mov A,1
 000E 7C0000            xcall _I2Cm_bRead
 0011 20                pop X
 0012 5405              mov [X+5],A
 0014 560400            mov [X+4],0
 0017                   .dbline 24
 0017           ;               capdata07 =I2Cm_bRead (I2Cm_ACKslave);
 0017 10                push X
 0018 5001              mov A,1
 001A 7C0000            xcall _I2Cm_bRead
 001D 20                pop X
 001E 5409              mov [X+9],A
 0020 560800            mov [X+8],0
 0023                   .dbline 25
 0023           ;               tempdata  =I2Cm_bRead (I2Cm_NAKslave);
 0023 10                push X
 0024 5000              mov A,0
 0026 7C0000            xcall _I2Cm_bRead
 0029 20                pop X
 002A 5407              mov [X+7],A
 002C 560600            mov [X+6],0
 002F                   .dbline 27
 002F           ;               
 002F           ;               I2Cm_SendStop();                        //Stop I2C      
 002F 10                push X
 0030 7C0000            xcall _I2Cm_SendStop
 0033 20                pop X
 0034                   .dbline 30
 0034           ;               
 0034           ;               // calculating temp and humidity
 0034           ;               capdata813=capdata813<<8;
 0034 5205              mov A,[X+5]
 0036 5404              mov [X+4],A
 0038 560500            mov [X+5],0
 003B                   .dbline 31
 003B           ;               humdata=capdata813|capdata07;
 003B 5205              mov A,[X+5]
 003D 2B09              or A,[X+9]
 003F 5403              mov [X+3],A
 0041 5204              mov A,[X+4]
 0043 2B08              or A,[X+8]
 0045 5402              mov [X+2],A
 0047                   .dbline 32
 0047           ;               humdata=humdata&0x3FFF;
 0047 27023F            and [X+2],63
 004A                   .dbline 34
 004A           ;               
 004A           ;               humdata=( humdata / 163.83 ) - 48;
 004A 5203              mov A,[X+3]
 004C 5300              mov [__r3],A
 004E 5202              mov A,[X+2]
 0050 5300              mov [__r2],A
 0052 470080            tst [__r2],-128
 0055 A009              jz X0
 0057 5500FF            mov [__r1],-1
 005A 5500FF            mov [__r0],-1
 005D 8007              jmp X1
 005F           X0:
 005F 550000            mov [__r1],0
 0062 550000            mov [__r0],0
 0065           X1:
 0065 5100              mov A,[__r0]
 0067 08                push A
 0068 5100              mov A,[__r1]
 006A 08                push A
 006B 5100              mov A,[__r2]
 006D 08                push A
 006E 5100              mov A,[__r3]
 0070 08                push A
 0071 7C0000            xcall __long2fp
 0074 18                pop A
 0075 5300              mov [__r3],A
 0077 18                pop A
 0078 5300              mov [__r2],A
 007A 18                pop A
 007B 5300              mov [__r1],A
 007D 18                pop A
 007E 5300              mov [__r0],A
 0080 5043              mov A,67
 0082 08                push A
 0083 5023              mov A,35
 0085 08                push A
 0086 50D4              mov A,-44
 0088 08                push A
 0089 507B              mov A,123
 008B 08                push A
 008C 5100              mov A,[__r0]
 008E 08                push A
 008F 5100              mov A,[__r1]
 0091 08                push A
 0092 5100              mov A,[__r2]
 0094 08                push A
 0095 5100              mov A,[__r3]
 0097 08                push A
 0098 7C0000            xcall __fpdiv
 009B 18                pop A
 009C 5300              mov [__r3],A
 009E 18                pop A
 009F 5300              mov [__r2],A
 00A1 18                pop A
 00A2 5300              mov [__r1],A
 00A4 18                pop A
 00A5 5300              mov [__r0],A
 00A7 38FC              add SP,-4
 00A9 5042              mov A,66
 00AB 08                push A
 00AC 5040              mov A,64
 00AE 08                push A
 00AF 5000              mov A,0
 00B1 08                push A
 00B2 08                push A
 00B3 5100              mov A,[__r0]
 00B5 08                push A
 00B6 5100              mov A,[__r1]
 00B8 08                push A
 00B9 5100              mov A,[__r2]
 00BB 08                push A
 00BC 5100              mov A,[__r3]
 00BE 08                push A
 00BF 7C0000            xcall __fpsub
 00C2 18                pop A
 00C3 5300              mov [__r3],A
 00C5 18                pop A
 00C6 5300              mov [__r2],A
 00C8 18                pop A
 00C9 5300              mov [__r1],A
 00CB 18                pop A
 00CC 38FC              add SP,-4
 00CE 08                push A
 00CF 5100              mov A,[__r1]
 00D1 08                push A
 00D2 5100              mov A,[__r2]
 00D4 08                push A
 00D5 5100              mov A,[__r3]
 00D7 08                push A
 00D8 7C0000            xcall __fp2long
 00DB 18                pop A
 00DC 5403              mov [X+3],A
 00DE 18                pop A
 00DF 5402              mov [X+2],A
 00E1 38FE              add SP,-2
 00E3                   .dbline 35
 00E3           ;               tempdata=-((tempdata / 99.2909 ) -28);
 00E3 5207              mov A,[X+7]
 00E5 5300              mov [__r3],A
 00E7 5206              mov A,[X+6]
 00E9 5300              mov [__r2],A
 00EB 470080            tst [__r2],-128
 00EE A009              jz X2
 00F0 5500FF            mov [__r1],-1
 00F3 5500FF            mov [__r0],-1
 00F6 8007              jmp X3
 00F8           X2:
 00F8 550000            mov [__r1],0
 00FB 550000            mov [__r0],0
 00FE           X3:
 00FE 5100              mov A,[__r0]
 0100 08                push A
 0101 5100              mov A,[__r1]
 0103 08                push A
 0104 5100              mov A,[__r2]
 0106 08                push A
 0107 5100              mov A,[__r3]
 0109 08                push A
 010A 7C0000            xcall __long2fp
 010D 18                pop A
 010E 5300              mov [__r3],A
 0110 18                pop A
 0111 5300              mov [__r2],A
 0113 18                pop A
 0114 5300              mov [__r1],A
 0116 18                pop A
 0117 5300              mov [__r0],A
 0119 5042              mov A,66
 011B 08                push A
 011C 50C6              mov A,-58
 011E 08                push A
 011F 5094              mov A,-108
 0121 08                push A
 0122 50F1              mov A,-15
 0124 08                push A
 0125 5100              mov A,[__r0]
 0127 08                push A
 0128 5100              mov A,[__r1]
 012A 08                push A
 012B 5100              mov A,[__r2]
 012D 08                push A
 012E 5100              mov A,[__r3]
 0130 08                push A
 0131 7C0000            xcall __fpdiv
 0134 18                pop A
 0135 5300              mov [__r3],A
 0137 18                pop A
 0138 5300              mov [__r2],A
 013A 18                pop A
 013B 5300              mov [__r1],A
 013D 18                pop A
 013E 5300              mov [__r0],A
 0140 38FC              add SP,-4
 0142 5041              mov A,65
 0144 08                push A
 0145 50E0              mov A,-32
 0147 08                push A
 0148 5000              mov A,0
 014A 08                push A
 014B 08                push A
 014C 5100              mov A,[__r0]
 014E 08                push A
 014F 5100              mov A,[__r1]
 0151 08                push A
 0152 5100              mov A,[__r2]
 0154 08                push A
 0155 5100              mov A,[__r3]
 0157 08                push A
 0158 7C0000            xcall __fpsub
 015B 18                pop A
 015C 5300              mov [__r3],A
 015E 18                pop A
 015F 5300              mov [__r2],A
 0161 18                pop A
 0162 5300              mov [__r1],A
 0164 18                pop A
 0165 5300              mov [__r0],A
 0167 38FC              add SP,-4
 0169 360080            xor [__r0],-128
 016C 5100              mov A,[__r0]
 016E 08                push A
 016F 5100              mov A,[__r1]
 0171 08                push A
 0172 5100              mov A,[__r2]
 0174 08                push A
 0175 5100              mov A,[__r3]
 0177 08                push A
 0178 7C0000            xcall __fp2long
 017B 18                pop A
 017C 5407              mov [X+7],A
 017E 18                pop A
 017F 5406              mov [X+6],A
 0181 38FE              add SP,-2
 0183                   .dbline 41
 0183           ;               
 0183           ;               
 0183           ;               
 0183           ;               
 0183           ;               //FIR filter
 0183           ;               for(i=0; i<4; i++) temperature[i] = temperature[i+1];
 0183 560100            mov [X+1],0
 0186 560000            mov [X+0],0
 0189           L2:
 0189                   .dbline 41
 0189 5201              mov A,[X+1]
 018B 0101              add A,1
 018D 64                asl A
 018E 5300              mov [__r1],A
 0190 52FC              mov A,[X-4]
 0192 0400              add [__r1],A
 0194 3E00              mvi A,[__r1]
 0196 5300              mov [__r0],A
 0198 3E00              mvi A,[__r1]
 019A 5300              mov [__r1],A
 019C 5201              mov A,[X+1]
 019E 64                asl A
 019F 5300              mov [__r3],A
 01A1 52FC              mov A,[X-4]
 01A3 0400              add [__r3],A
 01A5 5100              mov A,[__r0]
 01A7 3F00              mvi [__r3],A
 01A9 5100              mov A,[__r1]
 01AB 3F00              mvi [__r3],A
 01AD           L3:
 01AD                   .dbline 41
 01AD 7701              inc [X+1]
 01AF 0F0000            adc [X+0],0
 01B2                   .dbline 41
 01B2 5201              mov A,[X+1]
 01B4 1104              sub A,4
 01B6 5200              mov A,[X+0]
 01B8 3180              xor A,-128
 01BA 1980              sbb A,(0 ^ 0x80)
 01BC CFCC              jc L2
 01BE           X4:
 01BE                   .dbline 42
 01BE           ;               temperature[4] = tempdata;
 01BE 52FC              mov A,[X-4]
 01C0 0108              add A,8
 01C2 5300              mov [__r1],A
 01C4 5206              mov A,[X+6]
 01C6 3F00              mvi [__r1],A
 01C8 5207              mov A,[X+7]
 01CA 3F00              mvi [__r1],A
 01CC                   .dbline 45
 01CC           ;               
 01CC           ;               
 01CC           ;               for(i=0; i<4; i++) humidity[i] = humidity[i+1];
 01CC 560100            mov [X+1],0
 01CF 560000            mov [X+0],0
 01D2           L6:
 01D2                   .dbline 45
 01D2 5201              mov A,[X+1]
 01D4 0101              add A,1
 01D6 64                asl A
 01D7 5300              mov [__r1],A
 01D9 52FA              mov A,[X-6]
 01DB 0400              add [__r1],A
 01DD 3E00              mvi A,[__r1]
 01DF 5300              mov [__r0],A
 01E1 3E00              mvi A,[__r1]
 01E3 5300              mov [__r1],A
 01E5 5201              mov A,[X+1]
 01E7 64                asl A
 01E8 5300              mov [__r3],A
 01EA 52FA              mov A,[X-6]
 01EC 0400              add [__r3],A
 01EE 5100              mov A,[__r0]
 01F0 3F00              mvi [__r3],A
 01F2 5100              mov A,[__r1]
 01F4 3F00              mvi [__r3],A
 01F6           L7:
 01F6                   .dbline 45
 01F6 7701              inc [X+1]
 01F8 0F0000            adc [X+0],0
 01FB                   .dbline 45
 01FB 5201              mov A,[X+1]
 01FD 1104              sub A,4
 01FF 5200              mov A,[X+0]
 0201 3180              xor A,-128
 0203 1980              sbb A,(0 ^ 0x80)
 0205 CFCC              jc L6
 0207           X5:
 0207                   .dbline 46
 0207           ;               humidity[4] = humdata;
 0207 52FA              mov A,[X-6]
 0209 0108              add A,8
 020B 5300              mov [__r1],A
 020D 5202              mov A,[X+2]
 020F 3F00              mvi [__r1],A
 0211 5203              mov A,[X+3]
 0213 3F00              mvi [__r1],A
 0215                   .dbline -2
 0215           L1:
 0215 38F6              add SP,-10
 0217 20                pop X
 0218                   .dbline 0 ; func end
 0218 7F                ret
 0219                   .dbsym l capdata07 8 I
 0219                   .dbsym l tempdata 6 I
 0219                   .dbsym l capdata813 4 I
 0219                   .dbsym l humdata 2 I
 0219                   .dbsym l i 0 I
 0219                   .dbsym l humidity -7 pI
 0219                   .dbsym l temperature -5 pI
 0219                   .dbend
 0219                   .dbfunc e printtemp _printtemp fV
 0219           ;              i -> X+2
 0219           ;         result -> X+0
 0219           ;    temperature -> X-9
 0219           ;     secondLine -> X-7
 0219           ;      firstLine -> X-5
 0219           _printtemp::
 0219                   .dbline -1
 0219 10                push X
 021A 4F                mov X,SP
 021B 3804              add SP,4
 021D                   .dbline 52
 021D           ;               
 021D           ;               }
 021D           ;               
 021D           ;               
 021D           ;               
 021D           ;               void printtemp (char *firstLine, char *secondLine, int*temperature) {
 021D                   .dbline 58
 021D           ;                                       //calculate the average of temperature
 021D           ;                                       int result, i;
 021D           ;                                       //result = 0;
 021D           ;                                       //for(i=0; i<5; i++) result = result + temperature [i]; 
 021D           ;                                       //result = result/5;
 021D           ;                                       result=temperature[4];
 021D 52F8              mov A,[X-8]
 021F 0108              add A,8
 0221 5300              mov [__r1],A
 0223 3E00              mvi A,[__r1]
 0225 5400              mov [X+0],A
 0227 3E00              mvi A,[__r1]
 0229 5401              mov [X+1],A
 022B                   .dbline 61
 022B           ;                                       
 022B           ;                                       //send to LCD
 022B           ;                                       csprintf(firstLine, "Temperature:    ");
 022B 5033              mov A,>L11
 022D 08                push A
 022E 5033              mov A,<L11
 0230 08                push A
 0231 52FB              mov A,[X-5]
 0233 08                push A
 0234 52FC              mov A,[X-4]
 0236 08                push A
 0237 7C0000            xcall _csprintf
 023A                   .dbline 62
 023A           ;                                       csprintf(secondLine,"%i C            ",result);
 023A 5200              mov A,[X+0]
 023C 08                push A
 023D 5201              mov A,[X+1]
 023F 08                push A
 0240 5022              mov A,>L12
 0242 08                push A
 0243 5022              mov A,<L12
 0245 08                push A
 0246 52F9              mov A,[X-7]
 0248 08                push A
 0249 52FA              mov A,[X-6]
 024B 08                push A
 024C 7C0000            xcall _csprintf
 024F 38F6              add SP,-10
 0251                   .dbline -2
 0251           L10:
 0251 38FC              add SP,-4
 0253 20                pop X
 0254                   .dbline 0 ; func end
 0254 7F                ret
 0255                   .dbsym l i 2 I
 0255                   .dbsym l result 0 I
 0255                   .dbsym l temperature -9 pI
 0255                   .dbsym l secondLine -7 pc
 0255                   .dbsym l firstLine -5 pc
 0255                   .dbend
 0255                   .dbfunc e printhum _printhum fV
 0255           ;              i -> X+2
 0255           ;         result -> X+0
 0255           ;       humidity -> X-9
 0255           ;     secondLine -> X-7
 0255           ;      firstLine -> X-5
 0255           _printhum::
 0255                   .dbline -1
 0255 10                push X
 0256 4F                mov X,SP
 0257 3804              add SP,4
 0259                   .dbline 68
 0259           ;                                       }
 0259           ;                                       
 0259           ;                                       
 0259           ;                                       
 0259           ;                                       
 0259           ;               void printhum (char *firstLine, char *secondLine, int*humidity) {
 0259                   .dbline 74
 0259           ;                                       //calculate the average of humidity
 0259           ;                                       int result, i;
 0259           ;                                       //result = 0;
 0259           ;                                       //for(i=0; i<5; i++) result = result + humidity [i];
 0259           ;                                       //result = result/5;
 0259           ;                                       result =humidity[4];
 0259 52F8              mov A,[X-8]
 025B 0108              add A,8
 025D 5300              mov [__r1],A
 025F 3E00              mvi A,[__r1]
 0261 5400              mov [X+0],A
 0263 3E00              mvi A,[__r1]
 0265 5401              mov [X+1],A
 0267                   .dbline 76
 0267           ;                                       //send to LCD
 0267           ;                                       csprintf(firstLine, "Humidity:       ");
 0267 5011              mov A,>L14
 0269 08                push A
 026A 5011              mov A,<L14
 026C 08                push A
 026D 52FB              mov A,[X-5]
 026F 08                push A
 0270 52FC              mov A,[X-4]
 0272 08                push A
 0273 7C0000            xcall _csprintf
 0276                   .dbline 77
 0276           ;                                       csprintf(secondLine,"%i %%           ",result);
 0276 5200              mov A,[X+0]
 0278 08                push A
 0279 5201              mov A,[X+1]
 027B 08                push A
 027C 5000              mov A,>L15
 027E 08                push A
 027F 5000              mov A,<L15
 0281 08                push A
 0282 52F9              mov A,[X-7]
 0284 08                push A
 0285 52FA              mov A,[X-6]
 0287 08                push A
 0288 7C0000            xcall _csprintf
 028B 38F6              add SP,-10
 028D                   .dbline -2
 028D           L13:
 028D 38FC              add SP,-4
 028F 20                pop X
 0290                   .dbline 0 ; func end
 0290 7F                ret
 0291                   .dbsym l i 2 I
 0291                   .dbsym l result 0 I
 0291                   .dbsym l humidity -9 pI
 0291                   .dbsym l secondLine -7 pc
 0291                   .dbsym l firstLine -5 pc
 0291                   .dbend
                        .area lit(rom, con, rel, lit)
 0000           L15:
 0000 25692025252020202020202020202020  .byte 37,'i,32,37,37,32,32,32,32,32,32,32,32,32,32,32
 0010 00                .byte 0
 0011           L14:
 0011 48756D69646974793A20202020202020  .byte 'H,'u,'m,'i,'d,'i,'t,'y,58,32,32,32,32,32,32,32
 0021 00                .byte 0
 0022           L12:
 0022 25692043202020202020202020202020  .byte 37,'i,32,'C,32,32,32,32,32,32,32,32,32,32,32,32
 0032 00                .byte 0
 0033           L11:
 0033 54656D70657261747572653A20202020  .byte 'T,'e,'m,'p,'e,'r,'a,'t,'u,'r,'e,58,32,32,32,32
 0043 00                .byte 0
